target datalayout = "e-m:e-p270:32:32-p271:32:32-p272:64:64-i64:64-i128:128-f80:128-n8:16:32:64-S128"
target triple = "x86_64-pc-linux-gnu"

@.str = private unnamed_addr constant [81 x i8] c"OpenBLAS Warning ... cannot install fork handler. You may meet hang after fork.\0A\00", align 1

; Function Attrs: nounwind uwtable
define void @openblas_fork_handler() #0 {
  %1 = alloca i32, align 4
  call void @llvm.lifetime.start.p0(i64 4, ptr %1) #9
  %2 = call i32 @pthread_atfork(ptr noundef @blas_thread_shutdown_, ptr noundef null, ptr noundef null) #9
  store i32 %2, ptr %1, align 4, !tbaa !3
  %3 = load i32, ptr %1, align 4, !tbaa !3
  %4 = icmp ne i32 %3, 0
  br i1 %4, label %5, label %6

5:                                                ; preds = %0
  call void @openblas_warning(i32 noundef 0, ptr noundef @.str)
  br label %6

6:                                                ; preds = %5, %0
  call void @llvm.lifetime.end.p0(i64 4, ptr %1) #9
  ret void
}