; Function Attrs: nounwind uwtable
define void @openblas_fork_handler() local_unnamed_addr #0 {
  %1 = tail call i32 @pthread_atfork(ptr noundef nonnull @blas_thread_shutdown_, ptr noundef null, ptr noundef null) #15
  %.not = icmp eq i32 %1, 0
  br i1 %.not, label %3, label %2

2:                                                ; preds = %0
  tail call void @openblas_warning(i32 noundef 0, ptr noundef nonnull @.str) #15
  br label %3

3:                                                ; preds = %2, %0
  ret void
}